target datalayout = "e-m:e-p270:32:32-p271:32:32-p272:64:64-i64:64-i128:128-f80:128-n8:16:32:64-S128"
target triple = "x86_64-pc-linux-gnu"

%struct.H5O_link_t = type { i32, i8, i64, i32, ptr, %union.anon }
%union.anon = type { %struct.H5O_link_ud_t }
%struct.H5O_link_ud_t = type { ptr, i64 }
%struct.H5O_link_hard_t = type { i64 }
%struct.H5O_link_soft_t = type { ptr }

@.str.1 = private unnamed_addr constant [101 x i8] c"generated/home/dtcxzyw/WorkSpace/Projects/compilers/llvm-opt-benchmark/bench/hdf5/hdf5/src/H5Olink.c\00", align 1
@H5E_BADVALUE_g = external global i64, align 8
@H5E_SYM_g = external global i64, align 8
@.str.23 = private unnamed_addr constant [12 x i8] c"%*s%-*s %s\0A\00", align 1
@.str.24 = private unnamed_addr constant [1 x i8] zeroinitializer, align 1
@.str.25 = private unnamed_addr constant [11 x i8] c"Link Type:\00", align 1
@.str.26 = private unnamed_addr constant [5 x i8] c"Hard\00", align 1
@.str.27 = private unnamed_addr constant [5 x i8] c"Soft\00", align 1
@.str.28 = private unnamed_addr constant [9 x i8] c"External\00", align 1
@.str.29 = private unnamed_addr constant [13 x i8] c"User-defined\00", align 1
@.str.30 = private unnamed_addr constant [8 x i8] c"Unknown\00", align 1
@.str.31 = private unnamed_addr constant [13 x i8] c"%*s%-*s %ld\0A\00", align 1
@.str.32 = private unnamed_addr constant [16 x i8] c"Creation Order:\00", align 1
@.str.33 = private unnamed_addr constant [25 x i8] c"Link Name Character Set:\00", align 1
@.str.34 = private unnamed_addr constant [6 x i8] c"ASCII\00", align 1
@.str.35 = private unnamed_addr constant [6 x i8] c"UTF-8\00", align 1
@.str.36 = private unnamed_addr constant [14 x i8] c"%*s%-*s '%s'\0A\00", align 1
@.str.37 = private unnamed_addr constant [11 x i8] c"Link Name:\00", align 1
@.str.38 = private unnamed_addr constant [13 x i8] c"%*s%-*s %lu\0A\00", align 1
@.str.39 = private unnamed_addr constant [16 x i8] c"Object address:\00", align 1
@.str.40 = private unnamed_addr constant [12 x i8] c"Link Value:\00", align 1
@.str.41 = private unnamed_addr constant [20 x i8] c"External File Name:\00", align 1
@.str.42 = private unnamed_addr constant [22 x i8] c"External Object Name:\00", align 1
@.str.43 = private unnamed_addr constant [13 x i8] c"%*s%-*s %zu\0A\00", align 1
@.str.44 = private unnamed_addr constant [24 x i8] c"User-Defined Link Size:\00", align 1
@__func__.H5O__link_debug = private unnamed_addr constant [16 x i8] c"H5O__link_debug\00", align 1
@.str.45 = private unnamed_addr constant [23 x i8] c"unrecognized link type\00", align 1

; Function Attrs: nounwind uwtable
define internal i32 @H5O__link_debug(ptr noundef %0, ptr noundef %1, ptr noundef %2, i32 noundef %3, i32 noundef %4) #0 {
  %6 = alloca ptr, align 8
  %7 = alloca ptr, align 8
  %8 = alloca ptr, align 8
  %9 = alloca i32, align 4
  %10 = alloca i32, align 4
  %11 = alloca ptr, align 8
  %12 = alloca i32, align 4
  %13 = alloca i8, align 1
  %14 = alloca ptr, align 8
  store ptr %0, ptr %6, align 8
  store ptr %1, ptr %7, align 8
  store ptr %2, ptr %8, align 8
  store i32 %3, ptr %9, align 4
  store i32 %4, ptr %10, align 4
  %15 = load ptr, ptr %7, align 8
  store ptr %15, ptr %11, align 8
  store i32 0, ptr %12, align 4
  store i8 0, ptr %13, align 1
  %16 = load ptr, ptr %8, align 8
  %17 = load i32, ptr %9, align 4
  %18 = load i32, ptr %10, align 4
  %19 = load ptr, ptr %11, align 8
  %20 = getelementptr inbounds %struct.H5O_link_t, ptr %19, i32 0, i32 0
  %21 = load i32, ptr %20, align 8
  %22 = icmp eq i32 %21, 0
  br i1 %22, label %23, label %24

23:                                               ; preds = %5
  br label %46

24:                                               ; preds = %5
  %25 = load ptr, ptr %11, align 8
  %26 = getelementptr inbounds %struct.H5O_link_t, ptr %25, i32 0, i32 0
  %27 = load i32, ptr %26, align 8
  %28 = icmp eq i32 %27, 1
  br i1 %28, label %29, label %30

29:                                               ; preds = %24
  br label %44

30:                                               ; preds = %24
  %31 = load ptr, ptr %11, align 8
  %32 = getelementptr inbounds %struct.H5O_link_t, ptr %31, i32 0, i32 0
  %33 = load i32, ptr %32, align 8
  %34 = icmp eq i32 %33, 64
  br i1 %34, label %35, label %36

35:                                               ; preds = %30
  br label %42

36:                                               ; preds = %30
  %37 = load ptr, ptr %11, align 8
  %38 = getelementptr inbounds %struct.H5O_link_t, ptr %37, i32 0, i32 0
  %39 = load i32, ptr %38, align 8
  %40 = icmp sge i32 %39, 64
  %41 = select i1 %40, ptr @.str.29, ptr @.str.30
  br label %42

42:                                               ; preds = %36, %35
  %43 = phi ptr [ @.str.28, %35 ], [ %41, %36 ]
  br label %44

44:                                               ; preds = %42, %29
  %45 = phi ptr [ @.str.27, %29 ], [ %43, %42 ]
  br label %46

46:                                               ; preds = %44, %23
  %47 = phi ptr [ @.str.26, %23 ], [ %45, %44 ]
  %48 = call i32 (ptr, ptr, ...) @fprintf(ptr noundef %16, ptr noundef @.str.23, i32 noundef %17, ptr noundef @.str.24, i32 noundef %18, ptr noundef @.str.25, ptr noundef %47) #8
  %49 = load ptr, ptr %11, align 8
  %50 = getelementptr inbounds %struct.H5O_link_t, ptr %49, i32 0, i32 1
  %51 = load i8, ptr %50, align 4
  %52 = trunc i8 %51 to i1
  br i1 %52, label %53, label %61

53:                                               ; preds = %46
  %54 = load ptr, ptr %8, align 8
  %55 = load i32, ptr %9, align 4
  %56 = load i32, ptr %10, align 4
  %57 = load ptr, ptr %11, align 8
  %58 = getelementptr inbounds %struct.H5O_link_t, ptr %57, i32 0, i32 2
  %59 = load i64, ptr %58, align 8
  %60 = call i32 (ptr, ptr, ...) @fprintf(ptr noundef %54, ptr noundef @.str.31, i32 noundef %55, ptr noundef @.str.24, i32 noundef %56, ptr noundef @.str.32, i64 noundef %59) #8
  br label %61

61:                                               ; preds = %53, %46
  %62 = load ptr, ptr %8, align 8
  %63 = load i32, ptr %9, align 4
  %64 = load i32, ptr %10, align 4
  %65 = load ptr, ptr %11, align 8
  %66 = getelementptr inbounds %struct.H5O_link_t, ptr %65, i32 0, i32 3
  %67 = load i32, ptr %66, align 8
  %68 = icmp eq i32 %67, 0
  br i1 %68, label %69, label %70

69:                                               ; preds = %61
  br label %76

70:                                               ; preds = %61
  %71 = load ptr, ptr %11, align 8
  %72 = getelementptr inbounds %struct.H5O_link_t, ptr %71, i32 0, i32 3
  %73 = load i32, ptr %72, align 8
  %74 = icmp eq i32 %73, 1
  %75 = select i1 %74, ptr @.str.35, ptr @.str.30
  br label %76

76:                                               ; preds = %70, %69
  %77 = phi ptr [ @.str.34, %69 ], [ %75, %70 ]
  %78 = call i32 (ptr, ptr, ...) @fprintf(ptr noundef %62, ptr noundef @.str.23, i32 noundef %63, ptr noundef @.str.24, i32 noundef %64, ptr noundef @.str.33, ptr noundef %77) #8
  %79 = load ptr, ptr %8, align 8
  %80 = load i32, ptr %9, align 4
  %81 = load i32, ptr %10, align 4
  %82 = load ptr, ptr %11, align 8
  %83 = getelementptr inbounds %struct.H5O_link_t, ptr %82, i32 0, i32 4
  %84 = load ptr, ptr %83, align 8
  %85 = call i32 (ptr, ptr, ...) @fprintf(ptr noundef %79, ptr noundef @.str.36, i32 noundef %80, ptr noundef @.str.24, i32 noundef %81, ptr noundef @.str.37, ptr noundef %84) #8
  %86 = load ptr, ptr %11, align 8
  %87 = getelementptr inbounds %struct.H5O_link_t, ptr %86, i32 0, i32 0
  %88 = load i32, ptr %87, align 8
  switch i32 %88, label %108 [
    i32 0, label %89
    i32 1, label %98
    i32 -1, label %107
    i32 64, label %107
    i32 255, label %107
  ]

89:                                               ; preds = %76
  %90 = load ptr, ptr %8, align 8
  %91 = load i32, ptr %9, align 4
  %92 = load i32, ptr %10, align 4
  %93 = load ptr, ptr %11, align 8
  %94 = getelementptr inbounds %struct.H5O_link_t, ptr %93, i32 0, i32 5
  %95 = getelementptr inbounds %struct.H5O_link_hard_t, ptr %94, i32 0, i32 0
  %96 = load i64, ptr %95, align 8
  %97 = call i32 (ptr, ptr, ...) @fprintf(ptr noundef %90, ptr noundef @.str.38, i32 noundef %91, ptr noundef @.str.24, i32 noundef %92, ptr noundef @.str.39, i64 noundef %96) #8
  br label %169

98:                                               ; preds = %76
  %99 = load ptr, ptr %8, align 8
  %100 = load i32, ptr %9, align 4
  %101 = load i32, ptr %10, align 4
  %102 = load ptr, ptr %11, align 8
  %103 = getelementptr inbounds %struct.H5O_link_t, ptr %102, i32 0, i32 5
  %104 = getelementptr inbounds %struct.H5O_link_soft_t, ptr %103, i32 0, i32 0
  %105 = load ptr, ptr %104, align 8
  %106 = call i32 (ptr, ptr, ...) @fprintf(ptr noundef %99, ptr noundef @.str.36, i32 noundef %100, ptr noundef @.str.24, i32 noundef %101, ptr noundef @.str.40, ptr noundef %105) #8
  br label %169

107:                                              ; preds = %76, %76, %76
  br label %108

108:                                              ; preds = %107, %76
  %109 = load ptr, ptr %11, align 8
  %110 = getelementptr inbounds %struct.H5O_link_t, ptr %109, i32 0, i32 0
  %111 = load i32, ptr %110, align 8
  %112 = icmp sge i32 %111, 64
  br i1 %112, label %113, label %153

113:                                              ; preds = %108
  %114 = load ptr, ptr %11, align 8
  %115 = getelementptr inbounds %struct.H5O_link_t, ptr %114, i32 0, i32 0
  %116 = load i32, ptr %115, align 8
  %117 = icmp eq i32 %116, 64
  br i1 %117, label %118, label %143

118:                                              ; preds = %113
  %119 = load ptr, ptr %11, align 8
  %120 = getelementptr inbounds %struct.H5O_link_t, ptr %119, i32 0, i32 5
  %121 = getelementptr inbounds %struct.H5O_link_ud_t, ptr %120, i32 0, i32 0
  %122 = load ptr, ptr %121, align 8
  %123 = load ptr, ptr %11, align 8
  %124 = getelementptr inbounds %struct.H5O_link_t, ptr %123, i32 0, i32 5
  %125 = getelementptr inbounds %struct.H5O_link_ud_t, ptr %124, i32 0, i32 0
  %126 = load ptr, ptr %125, align 8
  %127 = call i64 @strlen(ptr noundef %126) #7
  %128 = add i64 %127, 1
  %129 = getelementptr inbounds i8, ptr %122, i64 %128
  store ptr %129, ptr %14, align 8
  %130 = load ptr, ptr %8, align 8
  %131 = load i32, ptr %9, align 4
  %132 = load i32, ptr %10, align 4
  %133 = load ptr, ptr %11, align 8
  %134 = getelementptr inbounds %struct.H5O_link_t, ptr %133, i32 0, i32 5
  %135 = getelementptr inbounds %struct.H5O_link_ud_t, ptr %134, i32 0, i32 0
  %136 = load ptr, ptr %135, align 8
  %137 = call i32 (ptr, ptr, ...) @fprintf(ptr noundef %130, ptr noundef @.str.23, i32 noundef %131, ptr noundef @.str.24, i32 noundef %132, ptr noundef @.str.41, ptr noundef %136) #8
  %138 = load ptr, ptr %8, align 8
  %139 = load i32, ptr %9, align 4
  %140 = load i32, ptr %10, align 4
  %141 = load ptr, ptr %14, align 8
  %142 = call i32 (ptr, ptr, ...) @fprintf(ptr noundef %138, ptr noundef @.str.23, i32 noundef %139, ptr noundef @.str.24, i32 noundef %140, ptr noundef @.str.42, ptr noundef %141) #8
  br label %152

143:                                              ; preds = %113
  %144 = load ptr, ptr %8, align 8
  %145 = load i32, ptr %9, align 4
  %146 = load i32, ptr %10, align 4
  %147 = load ptr, ptr %11, align 8
  %148 = getelementptr inbounds %struct.H5O_link_t, ptr %147, i32 0, i32 5
  %149 = getelementptr inbounds %struct.H5O_link_ud_t, ptr %148, i32 0, i32 1
  %150 = load i64, ptr %149, align 8
  %151 = call i32 (ptr, ptr, ...) @fprintf(ptr noundef %144, ptr noundef @.str.43, i32 noundef %145, ptr noundef @.str.24, i32 noundef %146, ptr noundef @.str.44, i64 noundef %150) #8
  br label %152

152:                                              ; preds = %143, %118
  br label %168

153:                                              ; preds = %108
  br label %154

154:                                              ; preds = %153
  br label %155

155:                                              ; preds = %154
  br label %156

156:                                              ; preds = %155
  %157 = load i64, ptr @H5E_SYM_g, align 8
  %158 = load i64, ptr @H5E_BADVALUE_g, align 8
  %159 = call i32 (ptr, ptr, i32, i64, i64, ptr, ...) @H5E_printf_stack(ptr noundef @.str.1, ptr noundef @__func__.H5O__link_debug, i32 noundef 831, i64 noundef %157, i64 noundef %158, ptr noundef @.str.45)
  br label %160

160:                                              ; preds = %156
  store i8 1, ptr %13, align 1
  %161 = load i8, ptr %13, align 1
  %162 = trunc i8 %161 to i1
  %163 = zext i1 %162 to i8
  store i8 %163, ptr %13, align 1
  br label %164

164:                                              ; preds = %160
  br label %165

165:                                              ; preds = %164
  store i32 -1, ptr %12, align 4
  br label %170

166:                                              ; No predecessors!
  br label %167

167:                                              ; preds = %166
  br label %168

168:                                              ; preds = %167, %152
  br label %169

169:                                              ; preds = %168, %98, %89
  br label %170

170:                                              ; preds = %169, %165
  %171 = load i32, ptr %12, align 4
  ret i32 %171
}