; Function Attrs: nounwind uwtable
define internal range(i32 -1, 1) i32 @H5O__link_debug(ptr nocapture readnone %0, ptr nocapture noundef readonly %1, ptr nocapture noundef %2, i32 noundef %3, i32 noundef %4) #0 {
  %6 = load i32, ptr %1, align 8
  switch i32 %6, label %7 [
    i32 0, label %10
    i32 1, label %.fold.split
    i32 64, label %.fold.split51
  ]

7:                                                ; preds = %5
  %8 = icmp sgt i32 %6, 63
  %9 = select i1 %8, ptr @.str.29, ptr @.str.30
  br label %10

.fold.split:                                      ; preds = %5
  br label %10

.fold.split51:                                    ; preds = %5
  br label %10

10:                                               ; preds = %5, %.fold.split51, %.fold.split, %7
  %11 = phi ptr [ @.str.26, %5 ], [ %9, %7 ], [ @.str.27, %.fold.split ], [ @.str.28, %.fold.split51 ]
  %12 = tail call i32 (ptr, ptr, ...) @fprintf(ptr noundef %2, ptr noundef nonnull @.str.23, i32 noundef %3, ptr noundef nonnull @.str.24, i32 noundef %4, ptr noundef nonnull @.str.25, ptr noundef nonnull %11) #7
  %13 = getelementptr inbounds i8, ptr %1, i64 4
  %14 = load i8, ptr %13, align 4
  %15 = trunc i8 %14 to i1
  br i1 %15, label %16, label %20

16:                                               ; preds = %10
  %17 = getelementptr inbounds i8, ptr %1, i64 8
  %18 = load i64, ptr %17, align 8
  %19 = tail call i32 (ptr, ptr, ...) @fprintf(ptr noundef %2, ptr noundef nonnull @.str.31, i32 noundef %3, ptr noundef nonnull @.str.24, i32 noundef %4, ptr noundef nonnull @.str.32, i64 noundef %18) #7
  br label %20

20:                                               ; preds = %16, %10
  %21 = getelementptr inbounds i8, ptr %1, i64 16
  %22 = load i32, ptr %21, align 8
  %23 = icmp eq i32 %22, 0
  %24 = icmp eq i32 %22, 1
  %25 = select i1 %24, ptr @.str.35, ptr @.str.30
  %26 = select i1 %23, ptr @.str.34, ptr %25
  %27 = tail call i32 (ptr, ptr, ...) @fprintf(ptr noundef %2, ptr noundef nonnull @.str.23, i32 noundef %3, ptr noundef nonnull @.str.24, i32 noundef %4, ptr noundef nonnull @.str.33, ptr noundef nonnull %26) #7
  %28 = getelementptr inbounds i8, ptr %1, i64 24
  %29 = load ptr, ptr %28, align 8
  %30 = tail call i32 (ptr, ptr, ...) @fprintf(ptr noundef %2, ptr noundef nonnull @.str.36, i32 noundef %3, ptr noundef nonnull @.str.24, i32 noundef %4, ptr noundef nonnull @.str.37, ptr noundef %29) #7
  %31 = load i32, ptr %1, align 8
  switch i32 %31, label %40 [
    i32 0, label %32
    i32 1, label %36
  ]

32:                                               ; preds = %20
  %33 = getelementptr inbounds i8, ptr %1, i64 32
  %34 = load i64, ptr %33, align 8
  %35 = tail call i32 (ptr, ptr, ...) @fprintf(ptr noundef %2, ptr noundef nonnull @.str.38, i32 noundef %3, ptr noundef nonnull @.str.24, i32 noundef %4, ptr noundef nonnull @.str.39, i64 noundef %34) #7
  br label %60

36:                                               ; preds = %20
  %37 = getelementptr inbounds i8, ptr %1, i64 32
  %38 = load ptr, ptr %37, align 8
  %39 = tail call i32 (ptr, ptr, ...) @fprintf(ptr noundef %2, ptr noundef nonnull @.str.36, i32 noundef %3, ptr noundef nonnull @.str.24, i32 noundef %4, ptr noundef nonnull @.str.40, ptr noundef %38) #7
  br label %60

40:                                               ; preds = %20
  %41 = icmp sgt i32 %31, 63
  br i1 %41, label %42, label %56

42:                                               ; preds = %40
  %43 = icmp eq i32 %31, 64
  br i1 %43, label %44, label %52

44:                                               ; preds = %42
  %45 = getelementptr inbounds i8, ptr %1, i64 32
  %46 = load ptr, ptr %45, align 8
  %47 = tail call i64 @strlen(ptr noundef nonnull dereferenceable(1) %46) #9
  %48 = getelementptr i8, ptr %46, i64 %47
  %49 = getelementptr i8, ptr %48, i64 1
  %50 = tail call i32 (ptr, ptr, ...) @fprintf(ptr noundef %2, ptr noundef nonnull @.str.23, i32 noundef %3, ptr noundef nonnull @.str.24, i32 noundef %4, ptr noundef nonnull @.str.41, ptr noundef %46) #7
  %51 = tail call i32 (ptr, ptr, ...) @fprintf(ptr noundef %2, ptr noundef nonnull @.str.23, i32 noundef %3, ptr noundef nonnull @.str.24, i32 noundef %4, ptr noundef nonnull @.str.42, ptr noundef %49) #7
  br label %60

52:                                               ; preds = %42
  %53 = getelementptr inbounds i8, ptr %1, i64 40
  %54 = load i64, ptr %53, align 8
  %55 = tail call i32 (ptr, ptr, ...) @fprintf(ptr noundef %2, ptr noundef nonnull @.str.43, i32 noundef %3, ptr noundef nonnull @.str.24, i32 noundef %4, ptr noundef nonnull @.str.44, i64 noundef %54) #7
  br label %60

56:                                               ; preds = %40
  %57 = load i64, ptr @H5E_SYM_g, align 8
  %58 = load i64, ptr @H5E_BADVALUE_g, align 8
  %59 = tail call i32 (ptr, ptr, i32, i64, i64, ptr, ...) @H5E_printf_stack(ptr noundef nonnull @.str.1, ptr noundef nonnull @__func__.H5O__link_debug, i32 noundef 831, i64 noundef %57, i64 noundef %58, ptr noundef nonnull @.str.45) #7
  br label %60

60:                                               ; preds = %32, %36, %44, %52, %56
  %.0 = phi i32 [ 0, %44 ], [ 0, %52 ], [ -1, %56 ], [ 0, %36 ], [ 0, %32 ]
  ret i32 %.0
}